target datalayout = "e-m:e-p270:32:32-p271:32:32-p272:64:64-i64:64-i128:128-f80:128-n8:16:32:64-S128"
target triple = "x86_64-pc-linux-gnu"

%struct.redisServer = type { i32, i64, ptr, ptr, ptr, i32, i32, i32, i32, i32, ptr, ptr, ptr, ptr, ptr, i32, i32, i32, i32, i64, i32, i32, i32, i32, ptr, i32, i32, [41 x i8], i32, i64, i32, i32, i32, ptr, ptr, i32, i32, i64, ptr, ptr, ptr, ptr, [2 x i32], i32, i32, i32, i32, i32, i32, [16 x ptr], i32, ptr, ptr, i32, [8 x %struct.connListener], i32, %struct.connListener, ptr, ptr, ptr, ptr, ptr, ptr, ptr, ptr, ptr, ptr, i32, ptr, i32, ptr, [3 x %struct.pause_event], [256 x i8], ptr, i64, i32, i32, [128 x i32], i32, i32, i64, i32, i32, i32, i32, i32, i64, i64, i64, i64, i64, i64, i64, i64, i64, i64, double, i64, i64, i64, i64, i64, i64, i64, i64, i64, i64, i64, i64, i64, i64, i64, i64, i64, i64, i64, i64, i64, double, i64, i64, i64, i64, i64, ptr, i64, i64, i64, %struct.malloc_stats, i64, i64, i64, i64, i64, i64, i64, i64, i64, i64, i64, i64, double, [4 x i64], i64, i64, i64, i64, [128 x i64], [128 x i64], i64, i64, [7 x %struct.anon], i64, i64, i64, i64, i64, i64, [4 x %struct.durationStats], i32, i32, i32, i32, i32, i32, i32, i32, i32, i32, i32, i32, i64, i32, i32, i32, i32, i64, i64, i32, i32, i32, i32, i32, ptr, [3 x %struct.clientBufferLimitsConfig], i32, i32, i32, ptr, i32, i32, i32, i32, i32, i32, ptr, ptr, i32, i32, i64, i64, i64, i64, i64, i32, i32, ptr, i32, i32, i64, i64, i64, i64, i64, i32, i32, i64, i32, i32, i32, i32, i32, i32, i32, i32, ptr, i32, i64, i64, i64, i64, i32, ptr, i32, ptr, i32, i32, i32, i64, i64, i64, i64, i32, i32, i32, i32, i32, i32, ptr, i32, i32, ptr, i32, i32, i32, [2 x i32], i32, %struct.redisOpArray, i32, ptr, i32, ptr, i32, i32, i32, i32, i32, i32, i32, [41 x i8], [41 x i8], i64, i64, i64, i64, i32, i32, ptr, i64, i64, %struct.replDataBuf, i64, i64, i32, i32, i32, i32, i32, i32, i32, i32, i32, i64, ptr, i64, ptr, ptr, ptr, i32, i32, ptr, ptr, i32, i32, i32, i64, i64, i64, i64, ptr, ptr, i32, ptr, i64, i32, i32, i32, i64, i32, i32, i32, i32, ptr, i32, i32, [41 x i8], i64, i32, ptr, i32, i32, i64, i64, i32, i32, i32, i32, i32, i64, [3 x i32], i32, i32, i32, [10 x i32], ptr, ptr, i32, i64, ptr, ptr, i32, i32, i32, i32, i64, i64, i64, i64, i64, i64, i64, i64, i64, i64, i32, i32, i64, i64, i32, i64, i64, i64, i64, i64, ptr, ptr, i32, ptr, i32, i32, i32, i32, i64, i64, ptr, ptr, i32, i32, i32, i32, i32, ptr, ptr, ptr, i32, i32, i32, i32, i32, i32, i32, i64, i32, i32, i64, i32, i32, i32, i32, i32, i32, i32, i64, ptr, ptr, i64, ptr, i32, %struct.aclInfo, i32, i64, i32, i32, i32, %struct.redisTLSContextConfig, ptr, ptr, ptr, ptr, ptr, i64, i32, ptr, i32, i32, i32, i64, i32, ptr }
%struct.connListener = type { [16 x i32], i32, ptr, i32, i32, ptr, ptr }
%struct.pause_event = type { i32, i64 }
%struct.malloc_stats = type { i64, i64, i64, i64, i64, i64, i64, i64, i64, i64, i64 }
%struct.anon = type { i64, i64, [16 x i64], i32 }
%struct.durationStats = type { i64, i64, i64 }
%struct.clientBufferLimitsConfig = type { i64, i64, i64 }
%struct.redisOpArray = type { ptr, i32, i32 }
%struct.replDataBuf = type { ptr, i64, i64, i64, i64 }
%struct.aclInfo = type { i64, i64, i64, i64 }
%struct.redisTLSContextConfig = type { ptr, ptr, ptr, ptr, ptr, ptr, ptr, ptr, ptr, ptr, ptr, ptr, i32, i32, i32, i32 }
%struct.dict = type { ptr, [2 x ptr], [2 x i64], i64, i16, [2 x i8], i16, [0 x ptr] }
%struct.dictExpireMetadata = type { %struct.ExpireMeta, ptr, ptr }
%struct.ExpireMeta = type { i32, i16, i16, ptr }
%struct.redisObject = type { i32, i32, ptr }
%struct.listpackEx = type { %struct.ExpireMeta, ptr, ptr }
%struct.redisDb = type { ptr, ptr, ptr, ptr, ptr, ptr, ptr, i32, i64, i64, ptr }
%struct.client = type { i64, i64, ptr, i8, i8, i8, i8, i32, ptr, ptr, ptr, ptr, ptr, i64, i64, i32, ptr, i32, i32, ptr, i64, ptr, ptr, ptr, ptr, ptr, i32, i32, i64, ptr, i64, ptr, i64, i64, i64, i32, ptr, i64, i64, i32, i32, i32, i32, i64, i64, ptr, i64, i64, i64, i64, i64, i64, i64, i64, [41 x i8], i32, ptr, i32, i32, i64, %struct.multiState, %struct.blockingState, i64, ptr, ptr, ptr, ptr, ptr, ptr, ptr, ptr, ptr, ptr, ptr, ptr, ptr, ptr, i64, ptr, i64, i32, ptr, ptr, ptr, i64, %struct.listNode, i64, i64, i32, i64, ptr }
%struct.multiState = type { ptr, i32, i32, i32, i64, i32 }
%struct.blockingState = type { i32, i64, i32, ptr, i32, i32, i64, ptr, ptr, i64 }
%struct.listNode = type { ptr, ptr, ptr }

@.str.2 = private unnamed_addr constant [9 x i8] c"t_hash.c\00", align 1
@server = external global %struct.redisServer, align 8
@.str.11 = private unnamed_addr constant [22 x i8] c"Unknown hash encoding\00", align 1
@.str.12 = private unnamed_addr constant [33 x i8] c"hashTypeDelete(o, field, 1) == 1\00", align 1
@.str.13 = private unnamed_addr constant [9 x i8] c"hexpired\00", align 1
@.str.14 = private unnamed_addr constant [4 x i8] c"del\00", align 1

; Function Attrs: nounwind uwtable
define dso_local i32 @hashTypeGetValue(ptr noundef %0, ptr noundef %1, ptr noundef %2, ptr noundef %3, ptr noundef %4, ptr noundef %5, i32 noundef %6, ptr noundef %7) #1 {
  %9 = alloca i32, align 4
  %10 = alloca ptr, align 8
  %11 = alloca ptr, align 8
  %12 = alloca ptr, align 8
  %13 = alloca ptr, align 8
  %14 = alloca ptr, align 8
  %15 = alloca ptr, align 8
  %16 = alloca i32, align 4
  %17 = alloca ptr, align 8
  %18 = alloca ptr, align 8
  %19 = alloca i32, align 4
  %20 = alloca i64, align 8
  %21 = alloca i32, align 4
  %22 = alloca ptr, align 8
  %23 = alloca ptr, align 8
  store ptr %0, ptr %10, align 8, !tbaa !27
  store ptr %1, ptr %11, align 8, !tbaa !15
  store ptr %2, ptr %12, align 8, !tbaa !33
  store ptr %3, ptr %13, align 8, !tbaa !102
  store ptr %4, ptr %14, align 8, !tbaa !103
  store ptr %5, ptr %15, align 8, !tbaa !105
  store i32 %6, ptr %16, align 4, !tbaa !13
  store ptr %7, ptr %17, align 8, !tbaa !107
  call void @llvm.lifetime.start.p0(i64 8, ptr %18) #12
  call void @llvm.lifetime.start.p0(i64 4, ptr %19) #12
  call void @llvm.lifetime.start.p0(i64 8, ptr %20) #12
  %24 = load ptr, ptr %17, align 8, !tbaa !107
  %25 = icmp eq ptr %24, null
  br i1 %25, label %26, label %27

26:                                               ; preds = %8
  store ptr %20, ptr %17, align 8, !tbaa !107
  br label %27

27:                                               ; preds = %26, %8
  %28 = load ptr, ptr %11, align 8, !tbaa !15
  %29 = load i32, ptr %28, align 8
  %30 = lshr i32 %29, 4
  %31 = and i32 %30, 15
  %32 = icmp eq i32 %31, 11
  br i1 %32, label %39, label %33

33:                                               ; preds = %27
  %34 = load ptr, ptr %11, align 8, !tbaa !15
  %35 = load i32, ptr %34, align 8
  %36 = lshr i32 %35, 4
  %37 = and i32 %36, 15
  %38 = icmp eq i32 %37, 12
  br i1 %38, label %39, label %52

39:                                               ; preds = %33, %27
  %40 = load ptr, ptr %13, align 8, !tbaa !102
  store ptr null, ptr %40, align 8, !tbaa !33
  %41 = load ptr, ptr %11, align 8, !tbaa !15
  %42 = load ptr, ptr %12, align 8, !tbaa !33
  %43 = load ptr, ptr %13, align 8, !tbaa !102
  %44 = load ptr, ptr %14, align 8, !tbaa !103
  %45 = load ptr, ptr %15, align 8, !tbaa !105
  %46 = load ptr, ptr %17, align 8, !tbaa !107
  %47 = call i32 @hashTypeGetFromListpack(ptr noundef %41, ptr noundef %42, ptr noundef %43, ptr noundef %44, ptr noundef %45, ptr noundef %46)
  store i32 %47, ptr %19, align 4, !tbaa !13
  %48 = load i32, ptr %19, align 4, !tbaa !13
  %49 = icmp eq i32 %48, 1
  br i1 %49, label %50, label %51

50:                                               ; preds = %39
  store i32 1, ptr %9, align 4
  store i32 1, ptr %21, align 4
  br label %200

51:                                               ; preds = %39
  br label %78

52:                                               ; preds = %33
  %53 = load ptr, ptr %11, align 8, !tbaa !15
  %54 = load i32, ptr %53, align 8
  %55 = lshr i32 %54, 4
  %56 = and i32 %55, 15
  %57 = icmp eq i32 %56, 2
  br i1 %57, label %58, label %76

58:                                               ; preds = %52
  call void @llvm.lifetime.start.p0(i64 8, ptr %22) #12
  store ptr null, ptr %22, align 8, !tbaa !33
  %59 = load ptr, ptr %11, align 8, !tbaa !15
  %60 = load ptr, ptr %12, align 8, !tbaa !33
  %61 = load ptr, ptr %17, align 8, !tbaa !107
  %62 = call i32 @hashTypeGetFromHashTable(ptr noundef %59, ptr noundef %60, ptr noundef %22, ptr noundef %61)
  store i32 %62, ptr %19, align 4, !tbaa !13
  %63 = load i32, ptr %19, align 4, !tbaa !13
  %64 = icmp eq i32 %63, 1
  br i1 %64, label %65, label %66

65:                                               ; preds = %58
  store i32 1, ptr %9, align 4
  store i32 1, ptr %21, align 4
  br label %73

66:                                               ; preds = %58
  %67 = load ptr, ptr %22, align 8, !tbaa !33
  %68 = load ptr, ptr %13, align 8, !tbaa !102
  store ptr %67, ptr %68, align 8, !tbaa !33
  %69 = load ptr, ptr %22, align 8, !tbaa !33
  %70 = call i64 @sdslen(ptr noundef %69)
  %71 = trunc i64 %70 to i32
  %72 = load ptr, ptr %14, align 8, !tbaa !103
  store i32 %71, ptr %72, align 4, !tbaa !13
  store i32 0, ptr %21, align 4
  br label %73

73:                                               ; preds = %66, %65
  call void @llvm.lifetime.end.p0(i64 8, ptr %22) #12
  %74 = load i32, ptr %21, align 4
  switch i32 %74, label %200 [
    i32 0, label %75
  ]

75:                                               ; preds = %73
  br label %77

76:                                               ; preds = %52
  call void (ptr, i32, ptr, ...) @_serverPanic(ptr noundef @.str.2, i32 noundef 748, ptr noundef @.str.11)
  call void @abort() #14
  unreachable

77:                                               ; preds = %75
  br label %78

78:                                               ; preds = %77, %51
  %79 = load ptr, ptr %17, align 8, !tbaa !107
  %80 = load i64, ptr %79, align 8, !tbaa !31
  %81 = call i64 @commandTimeSnapshot()
  %82 = icmp uge i64 %80, %81
  br i1 %82, label %87, label %83

83:                                               ; preds = %78
  %84 = load i32, ptr %16, align 4, !tbaa !13
  %85 = and i32 %84, 16
  %86 = icmp ne i32 %85, 0
  br i1 %86, label %87, label %88

87:                                               ; preds = %83, %78
  store i32 0, ptr %9, align 4
  store i32 1, ptr %21, align 4
  br label %200

88:                                               ; preds = %83
  %89 = load ptr, ptr getelementptr inbounds nuw (%struct.redisServer, ptr @server, i32 0, i32 297), align 8, !tbaa !111
  %90 = icmp ne ptr %89, null
  br i1 %90, label %91, label %102

91:                                               ; preds = %88
  %92 = load ptr, ptr getelementptr inbounds nuw (%struct.redisServer, ptr @server, i32 0, i32 63), align 8, !tbaa !112
  %93 = icmp ne ptr %92, null
  br i1 %93, label %94, label %101

94:                                               ; preds = %91
  %95 = load ptr, ptr getelementptr inbounds nuw (%struct.redisServer, ptr @server, i32 0, i32 63), align 8, !tbaa !112
  %96 = getelementptr inbounds nuw %struct.client, ptr %95, i32 0, i32 1
  %97 = load i64, ptr %96, align 8, !tbaa !113
  %98 = and i64 %97, 2
  %99 = icmp ne i64 %98, 0
  br i1 %99, label %100, label %101

100:                                              ; preds = %94
  store i32 0, ptr %9, align 4
  store i32 1, ptr %21, align 4
  br label %200

101:                                              ; preds = %94, %91
  store i32 2, ptr %9, align 4
  store i32 1, ptr %21, align 4
  br label %200

102:                                              ; preds = %88
  %103 = load volatile i32, ptr getelementptr inbounds nuw (%struct.redisServer, ptr @server, i32 0, i32 84), align 4, !tbaa !121
  %104 = icmp ne i32 %103, 0
  br i1 %104, label %115, label %105

105:                                              ; preds = %102
  %106 = load i32, ptr getelementptr inbounds nuw (%struct.redisServer, ptr @server, i32 0, i32 165), align 8, !tbaa !122
  %107 = icmp ne i32 %106, 0
  br i1 %107, label %115, label %108

108:                                              ; preds = %105
  %109 = load i32, ptr %16, align 4, !tbaa !13
  %110 = and i32 %109, 1
  %111 = icmp ne i32 %110, 0
  br i1 %111, label %115, label %112

112:                                              ; preds = %108
  %113 = call i32 @isPausedActionsWithUpdate(i32 noundef 4)
  %114 = icmp ne i32 %113, 0
  br i1 %114, label %115, label %116

115:                                              ; preds = %112, %108, %105, %102
  store i32 2, ptr %9, align 4
  store i32 1, ptr %21, align 4
  br label %200

116:                                              ; preds = %112
  %117 = load ptr, ptr %11, align 8, !tbaa !15
  %118 = load i32, ptr %117, align 8
  %119 = lshr i32 %118, 4
  %120 = and i32 %119, 15
  %121 = icmp eq i32 %120, 12
  br i1 %121, label %122, label %128

122:                                              ; preds = %116
  %123 = load ptr, ptr %11, align 8, !tbaa !15
  %124 = getelementptr inbounds nuw %struct.redisObject, ptr %123, i32 0, i32 2
  %125 = load ptr, ptr %124, align 8, !tbaa !17
  %126 = getelementptr inbounds nuw %struct.listpackEx, ptr %125, i32 0, i32 1
  %127 = load ptr, ptr %126, align 8, !tbaa !26
  store ptr %127, ptr %18, align 8, !tbaa !33
  br label %135

128:                                              ; preds = %116
  %129 = load ptr, ptr %11, align 8, !tbaa !15
  %130 = getelementptr inbounds nuw %struct.redisObject, ptr %129, i32 0, i32 2
  %131 = load ptr, ptr %130, align 8, !tbaa !17
  %132 = getelementptr inbounds nuw %struct.dict, ptr %131, i32 0, i32 7
  %133 = getelementptr inbounds nuw %struct.dictExpireMetadata, ptr %132, i32 0, i32 2
  %134 = load ptr, ptr %133, align 8, !tbaa !123
  store ptr %134, ptr %18, align 8, !tbaa !33
  br label %135

135:                                              ; preds = %128, %122
  %136 = load ptr, ptr %11, align 8, !tbaa !15
  %137 = load ptr, ptr %12, align 8, !tbaa !33
  %138 = call i32 @hashTypeDelete(ptr noundef %136, ptr noundef %137, i32 noundef 1)
  %139 = icmp eq i32 %138, 1
  %140 = xor i1 %139, true
  %141 = xor i1 %140, true
  %142 = zext i1 %141 to i32
  %143 = sext i32 %142 to i64
  %144 = call i64 @llvm.expect.i64(i64 %143, i64 1)
  %145 = icmp ne i64 %144, 0
  br i1 %145, label %146, label %147

146:                                              ; preds = %135
  br label %149

147:                                              ; preds = %135
  call void @_serverAssert(ptr noundef @.str.12, ptr noundef @.str.2, i32 noundef 776)
  call void @abort() #14
  unreachable

148:                                              ; No predecessors!
  br label %149

149:                                              ; preds = %148, %146
  %150 = load ptr, ptr %10, align 8, !tbaa !27
  %151 = load ptr, ptr %18, align 8, !tbaa !33
  %152 = load ptr, ptr %12, align 8, !tbaa !33
  %153 = load ptr, ptr %12, align 8, !tbaa !33
  %154 = call i64 @sdslen(ptr noundef %153)
  call void @propagateHashFieldDeletion(ptr noundef %150, ptr noundef %151, ptr noundef %152, i64 noundef %154)
  %155 = load i64, ptr getelementptr inbounds nuw (%struct.redisServer, ptr @server, i32 0, i32 95), align 8, !tbaa !40
  %156 = add nsw i64 %155, 1
  store i64 %156, ptr getelementptr inbounds nuw (%struct.redisServer, ptr @server, i32 0, i32 95), align 8, !tbaa !40
  store i32 2, ptr %19, align 4, !tbaa !13
  call void @llvm.lifetime.start.p0(i64 8, ptr %23) #12
  %157 = load ptr, ptr %18, align 8, !tbaa !33
  %158 = load ptr, ptr %18, align 8, !tbaa !33
  %159 = call i64 @sdslen(ptr noundef %158)
  %160 = call ptr @createStringObject(ptr noundef %157, i64 noundef %159)
  store ptr %160, ptr %23, align 8, !tbaa !15
  %161 = load i32, ptr %16, align 4, !tbaa !13
  %162 = and i32 %161, 4
  %163 = icmp ne i32 %162, 0
  br i1 %163, label %169, label %164

164:                                              ; preds = %149
  %165 = load ptr, ptr %23, align 8, !tbaa !15
  %166 = load ptr, ptr %10, align 8, !tbaa !27
  %167 = getelementptr inbounds nuw %struct.redisDb, ptr %166, i32 0, i32 7
  %168 = load i32, ptr %167, align 8, !tbaa !70
  call void @notifyKeyspaceEvent(i32 noundef 64, ptr noundef @.str.13, ptr noundef %165, i32 noundef %168)
  br label %169

169:                                              ; preds = %164, %149
  %170 = load ptr, ptr %11, align 8, !tbaa !15
  %171 = call i64 @hashTypeLength(ptr noundef %170, i32 noundef 0)
  %172 = icmp eq i64 %171, 0
  br i1 %172, label %173, label %190

173:                                              ; preds = %169
  %174 = load i32, ptr %16, align 4, !tbaa !13
  %175 = and i32 %174, 2
  %176 = icmp ne i32 %175, 0
  br i1 %176, label %190, label %177

177:                                              ; preds = %173
  %178 = load i32, ptr %16, align 4, !tbaa !13
  %179 = and i32 %178, 4
  %180 = icmp ne i32 %179, 0
  br i1 %180, label %186, label %181

181:                                              ; preds = %177
  %182 = load ptr, ptr %23, align 8, !tbaa !15
  %183 = load ptr, ptr %10, align 8, !tbaa !27
  %184 = getelementptr inbounds nuw %struct.redisDb, ptr %183, i32 0, i32 7
  %185 = load i32, ptr %184, align 8, !tbaa !70
  call void @notifyKeyspaceEvent(i32 noundef 4, ptr noundef @.str.14, ptr noundef %182, i32 noundef %185)
  br label %186

186:                                              ; preds = %181, %177
  %187 = load ptr, ptr %10, align 8, !tbaa !27
  %188 = load ptr, ptr %23, align 8, !tbaa !15
  %189 = call i32 @dbDelete(ptr noundef %187, ptr noundef %188)
  store i32 3, ptr %19, align 4, !tbaa !13
  br label %190

190:                                              ; preds = %186, %173, %169
  %191 = load i32, ptr %16, align 4, !tbaa !13
  %192 = and i32 %191, 8
  %193 = icmp ne i32 %192, 0
  br i1 %193, label %197, label %194

194:                                              ; preds = %190
  %195 = load ptr, ptr %10, align 8, !tbaa !27
  %196 = load ptr, ptr %23, align 8, !tbaa !15
  call void @signalModifiedKey(ptr noundef null, ptr noundef %195, ptr noundef %196)
  br label %197

197:                                              ; preds = %194, %190
  %198 = load ptr, ptr %23, align 8, !tbaa !15
  call void @decrRefCount(ptr noundef %198)
  %199 = load i32, ptr %19, align 4, !tbaa !13
  store i32 %199, ptr %9, align 4
  store i32 1, ptr %21, align 4
  call void @llvm.lifetime.end.p0(i64 8, ptr %23) #12
  br label %200

200:                                              ; preds = %197, %115, %101, %100, %87, %73, %50
  call void @llvm.lifetime.end.p0(i64 8, ptr %20) #12
  call void @llvm.lifetime.end.p0(i64 4, ptr %19) #12
  call void @llvm.lifetime.end.p0(i64 8, ptr %18) #12
  %201 = load i32, ptr %9, align 4
  ret i32 %201
}