; Function Attrs: nounwind uwtable
define dso_local range(i32 0, 4) i32 @hashTypeGetValue(ptr noundef %0, ptr noundef captures(none) %1, ptr noundef %2, ptr noundef writeonly captures(none) %3, ptr noundef %4, ptr noundef %5, i32 noundef %6, ptr noundef captures(address_is_null) %7) local_unnamed_addr #1 {
  %9 = alloca i64, align 8
  %10 = alloca ptr, align 8
  call void @llvm.lifetime.start.p0(i64 8, ptr nonnull %9) #16
  %11 = icmp eq ptr %7, null
  %spec.store.select = select i1 %11, ptr %9, ptr %7
  %12 = load i32, ptr %1, align 8
  %13 = lshr i32 %12, 4
  %14 = and i32 %13, 15
  switch i32 %14, label %44 [
    i32 11, label %15
    i32 12, label %15
    i32 2, label %17
  ]

15:                                               ; preds = %8, %8
  store ptr null, ptr %3, align 8, !tbaa !85
  %16 = call i32 @hashTypeGetFromListpack(ptr noundef nonnull %1, ptr noundef %2, ptr noundef nonnull %3, ptr noundef %4, ptr noundef %5, ptr noundef nonnull %spec.store.select)
  %.not54 = icmp eq i32 %16, 0
  br i1 %.not54, label %45, label %100

17:                                               ; preds = %8
  call void @llvm.lifetime.start.p0(i64 8, ptr nonnull %10) #16
  store ptr null, ptr %10, align 8, !tbaa !85
  %18 = call i32 @hashTypeGetFromHashTable(ptr noundef nonnull %1, ptr noundef %2, ptr noundef nonnull %10, ptr noundef nonnull %spec.store.select)
  %.not = icmp eq i32 %18, 0
  br i1 %.not, label %19, label %.critedge

19:                                               ; preds = %17
  %20 = load ptr, ptr %10, align 8, !tbaa !85
  store ptr %20, ptr %3, align 8, !tbaa !85
  %21 = getelementptr inbounds i8, ptr %20, i64 -1
  %22 = load i8, ptr %21, align 1, !tbaa !5
  %23 = zext i8 %22 to i32
  %24 = and i32 %23, 7
  switch i32 %24, label %sdslen.exit [
    i32 0, label %25
    i32 1, label %28
    i32 2, label %32
    i32 3, label %36
    i32 4, label %40
  ]

25:                                               ; preds = %19
  %26 = lshr i32 %23, 3
  %27 = zext nneg i32 %26 to i64
  br label %sdslen.exit

28:                                               ; preds = %19
  %29 = getelementptr inbounds i8, ptr %20, i64 -3
  %30 = load i8, ptr %29, align 1, !tbaa !5
  %31 = zext i8 %30 to i64
  br label %sdslen.exit

32:                                               ; preds = %19
  %33 = getelementptr inbounds i8, ptr %20, i64 -5
  %34 = load i16, ptr %33, align 1, !tbaa !8
  %35 = zext i16 %34 to i64
  br label %sdslen.exit

36:                                               ; preds = %19
  %37 = getelementptr inbounds i8, ptr %20, i64 -9
  %38 = load i32, ptr %37, align 1, !tbaa !65
  %39 = zext i32 %38 to i64
  br label %sdslen.exit

40:                                               ; preds = %19
  %41 = getelementptr inbounds i8, ptr %20, i64 -17
  %42 = load i64, ptr %41, align 1, !tbaa !28
  br label %sdslen.exit

sdslen.exit:                                      ; preds = %19, %25, %28, %32, %36, %40
  %.0.i = phi i64 [ %42, %40 ], [ %39, %36 ], [ %35, %32 ], [ %31, %28 ], [ %27, %25 ], [ 0, %19 ]
  %43 = trunc i64 %.0.i to i32
  store i32 %43, ptr %4, align 4, !tbaa !65
  call void @llvm.lifetime.end.p0(i64 8, ptr nonnull %10) #16
  br label %45

44:                                               ; preds = %8
  tail call void (ptr, i32, ptr, ...) @_serverPanic(ptr noundef nonnull @.str.2, i32 noundef 748, ptr noundef nonnull @.str.11) #16
  tail call void @abort() #17
  unreachable

45:                                               ; preds = %sdslen.exit, %15
  %46 = load i64, ptr %spec.store.select, align 8, !tbaa !28
  %47 = tail call i64 @commandTimeSnapshot() #16
  %.not55 = icmp ult i64 %46, %47
  %48 = and i32 %6, 16
  %.not56 = icmp eq i32 %48, 0
  %or.cond66 = and i1 %.not56, %.not55
  br i1 %or.cond66, label %49, label %100

49:                                               ; preds = %45
  %50 = load ptr, ptr getelementptr inbounds nuw (i8, ptr @server, i64 7264), align 8, !tbaa !90
  %.not57 = icmp eq ptr %50, null
  br i1 %.not57, label %58, label %51

51:                                               ; preds = %49
  %52 = load ptr, ptr getelementptr inbounds nuw (i8, ptr @server, i64 1480), align 8, !tbaa !91
  %.not64 = icmp eq ptr %52, null
  br i1 %.not64, label %57, label %53

53:                                               ; preds = %51
  %54 = getelementptr inbounds nuw i8, ptr %52, i64 8
  %55 = load i64, ptr %54, align 8, !tbaa !92
  %56 = and i64 %55, 2
  %.not65 = icmp eq i64 %56, 0
  br i1 %.not65, label %57, label %100

57:                                               ; preds = %53, %51
  br label %100

58:                                               ; preds = %49
  %59 = load volatile i32, ptr getelementptr inbounds nuw (i8, ptr @server, i64 2412), align 4, !tbaa !102
  %60 = load i32, ptr getelementptr inbounds nuw (i8, ptr @server, i64 6312), align 8
  %61 = icmp eq i32 %60, 0
  %62 = and i32 %6, 1
  %63 = or i32 %59, %62
  %64 = icmp eq i32 %63, 0
  %or.cond67 = select i1 %64, i1 %61, i1 false
  br i1 %or.cond67, label %65, label %100

65:                                               ; preds = %58
  %66 = tail call i32 @isPausedActionsWithUpdate(i32 noundef 4) #16
  %.not59 = icmp eq i32 %66, 0
  br i1 %.not59, label %67, label %100

67:                                               ; preds = %65
  %68 = load i32, ptr %1, align 8
  %69 = and i32 %68, 240
  %70 = icmp eq i32 %69, 192
  %71 = getelementptr inbounds nuw i8, ptr %1, i64 8
  %72 = load ptr, ptr %71, align 8, !tbaa !10
  %. = select i1 %70, i64 16, i64 80
  %73 = getelementptr inbounds nuw i8, ptr %72, i64 %.
  %.051 = load ptr, ptr %73, align 8, !tbaa !85
  %74 = tail call i32 @hashTypeDelete(ptr noundef nonnull %1, ptr noundef %2, i32 noundef 1)
  %.not60 = icmp eq i32 %74, 0
  br i1 %.not60, label %75, label %76, !prof !23

75:                                               ; preds = %67
  tail call void @_serverAssert(ptr noundef nonnull @.str.12, ptr noundef nonnull @.str.2, i32 noundef 776) #16
  tail call void @abort() #17
  unreachable

76:                                               ; preds = %67
  %77 = tail call fastcc i64 @sdslen(ptr noundef %2)
  tail call fastcc void @propagateHashFieldDeletion(ptr noundef %0, ptr noundef %.051, ptr noundef %2, i64 noundef %77)
  %78 = load i64, ptr getelementptr inbounds nuw (i8, ptr @server, i64 2496), align 8, !tbaa !29
  %79 = add nsw i64 %78, 1
  store i64 %79, ptr getelementptr inbounds nuw (i8, ptr @server, i64 2496), align 8, !tbaa !29
  %80 = tail call fastcc i64 @sdslen(ptr noundef %.051)
  %81 = tail call ptr @createStringObject(ptr noundef %.051, i64 noundef %80) #16
  %82 = and i32 %6, 4
  %.not61 = icmp eq i32 %82, 0
  br i1 %.not61, label %83, label %86

83:                                               ; preds = %76
  %84 = getelementptr inbounds nuw i8, ptr %0, i64 56
  %85 = load i32, ptr %84, align 8, !tbaa !67
  tail call void @notifyKeyspaceEvent(i32 noundef 64, ptr noundef nonnull @.str.13, ptr noundef %81, i32 noundef %85) #16
  br label %86

86:                                               ; preds = %83, %76
  %87 = tail call i64 @hashTypeLength(ptr noundef nonnull %1, i32 noundef 0)
  %88 = icmp eq i64 %87, 0
  %89 = and i32 %6, 2
  %.not62 = icmp eq i32 %89, 0
  %or.cond68 = and i1 %.not62, %88
  br i1 %or.cond68, label %90, label %96

90:                                               ; preds = %86
  br i1 %.not61, label %91, label %94

91:                                               ; preds = %90
  %92 = getelementptr inbounds nuw i8, ptr %0, i64 56
  %93 = load i32, ptr %92, align 8, !tbaa !67
  tail call void @notifyKeyspaceEvent(i32 noundef 4, ptr noundef nonnull @.str.14, ptr noundef %81, i32 noundef %93) #16
  br label %94

94:                                               ; preds = %91, %90
  %95 = tail call i32 @dbDelete(ptr noundef %0, ptr noundef %81) #16
  br label %96

96:                                               ; preds = %94, %86
  %.050 = phi i32 [ 3, %94 ], [ 2, %86 ]
  %97 = and i32 %6, 8
  %.not63 = icmp eq i32 %97, 0
  br i1 %.not63, label %98, label %99

98:                                               ; preds = %96
  tail call void @signalModifiedKey(ptr noundef null, ptr noundef %0, ptr noundef %81) #16
  br label %99

99:                                               ; preds = %98, %96
  tail call void @decrRefCount(ptr noundef %81) #16
  br label %100

.critedge:                                        ; preds = %17
  call void @llvm.lifetime.end.p0(i64 8, ptr nonnull %10) #16
  br label %100

100:                                              ; preds = %58, %65, %53, %45, %.critedge, %15, %99, %57
  %.0 = phi i32 [ 2, %57 ], [ %.050, %99 ], [ 1, %15 ], [ 1, %.critedge ], [ 0, %45 ], [ 0, %53 ], [ 2, %65 ], [ 2, %58 ]
  call void @llvm.lifetime.end.p0(i64 8, ptr nonnull %9) #16
  ret i32 %.0
}